Certificate:
    Data:
        Version: 3 (0x2)
        Serial Number:
            7f:2b:b6:f9:0c:a4:04:7d:1c:21:83:12:68:74:1d:c6
    Signature Algorithm: sha256WithRSAEncryption
        Issuer: C=US, ST=New York, L=Armonk, O=IBM Cloud Private, CN=www.ibm.com
        Validity
            Not Before: Jul 11 10:15:34 2019 GMT
            Not After : Jun 17 10:15:34 2119 GMT
        Subject: CN=kubelet-client
        Subject Public Key Info:
            Public Key Algorithm: rsaEncryption
                Public-Key: (2048 bit)
                Modulus:
                    00:b9:b0:71:da:12:36:f2:e7:9a:1e:59:2c:41:d7:
                    f7:57:31:47:34:e6:ac:68:0d:22:ba:cd:8c:74:bd:
                    52:d7:7d:bc:a2:10:2c:11:1f:f9:09:15:fd:31:53:
                    17:46:47:ab:b6:29:b7:b3:50:b0:55:d1:9c:d4:03:
                    cb:01:92:9f:0b:3b:74:8f:4b:2a:bb:a0:ce:aa:58:
                    5c:aa:48:84:4c:02:65:07:2a:32:bd:88:03:1c:f3:
                    4e:92:1b:a3:24:24:35:d2:02:62:2a:f0:58:41:3c:
                    7a:8c:9f:28:ab:53:b4:c2:d2:b3:39:41:5e:75:aa:
                    aa:27:89:4b:78:2a:b9:74:c7:49:14:3c:af:4f:7c:
                    53:be:2d:b6:17:c7:4d:5c:df:d7:97:62:5a:47:19:
                    f6:c5:9c:17:24:a2:aa:47:b2:95:79:3f:0c:2a:10:
                    1e:d1:0f:71:98:2f:48:68:50:16:32:1f:e2:b2:20:
                    1e:a6:27:73:89:a5:2d:eb:63:89:36:85:41:78:a3:
                    b7:ce:8c:2d:3f:b1:87:12:0b:bb:84:73:57:c6:01:
                    cc:83:1c:ea:23:ac:29:1c:51:e0:e2:fb:9e:b8:78:
                    e1:f7:0a:59:b8:76:ed:93:ed:f8:14:1b:57:ae:9d:
                    43:49:b8:b2:3f:85:fd:db:d9:60:5a:8d:69:e7:03:
                    fb:13
                Exponent: 65537 (0x10001)
        X509v3 extensions:
            X509v3 Basic Constraints: 
                CA:FALSE
            X509v3 Subject Key Identifier: 
                06:87:26:F0:87:FB:12:D2:66:6E:C0:B7:69:41:84:6C:7E:C7:38:D0
            X509v3 Authority Key Identifier: 
                keyid:52:E7:8D:E0:A3:DF:BB:64:47:25:9A:33:29:60:C5:85:D6:85:31:85
                DirName:/C=US/ST=New York/L=Armonk/O=IBM Cloud Private/CN=www.ibm.com
                serial:98:02:42:78:55:9A:33:B7

            X509v3 Extended Key Usage: 
                TLS Web Client Authentication
            X509v3 Key Usage: 
                Digital Signature
    Signature Algorithm: sha256WithRSAEncryption
         4d:75:c4:8e:dd:e9:3b:8f:db:87:31:c4:f3:ef:d3:cb:3a:40:
         dd:e4:6d:ca:79:69:42:52:68:7c:b9:e6:38:e9:fd:0b:b9:64:
         37:e2:01:1b:fa:51:b2:96:9f:95:a9:e2:8a:36:1e:f5:52:24:
         71:4d:46:44:55:f1:bf:dc:83:ac:16:5f:8c:09:54:ec:b8:25:
         73:93:1d:1c:eb:b0:03:c8:a6:3f:0d:be:69:65:81:27:3b:22:
         b8:ff:5b:dd:68:28:3e:92:9f:d1:3c:7b:b2:61:68:13:9a:eb:
         11:66:f8:0b:85:5e:c7:a5:54:d2:1e:24:ee:e6:ff:0b:21:13:
         1b:e0:2a:dc:18:2a:2b:c8:e2:89:15:48:88:84:36:2b:34:0d:
         ef:d4:d6:19:14:c7:bb:1b:8c:39:ad:72:66:d9:1c:76:a8:6e:
         16:ab:57:37:76:a2:96:d2:7d:b1:9b:29:ed:ac:89:75:ec:ae:
         b7:a1:51:ed:be:95:0d:00:d8:2d:5c:e6:45:3e:5b:fa:3a:c5:
         28:18:45:d4:23:ef:1d:56:32:d6:36:19:62:cd:fb:54:5e:dc:
         16:80:cf:2f:14:2b:93:4f:e3:b7:e7:54:e4:4b:da:69:15:6a:
         bc:74:b6:d4:b8:bf:15:e8:c0:4b:0e:08:9d:cb:c7:a4:63:12:
         8b:f3:a2:cd:f1:de:06:66:0d:7a:8b:ce:b6:fe:5e:a8:7f:4d:
         7a:62:a7:48:b4:a9:cb:ef:42:48:71:95:a9:e7:78:70:e3:dd:
         9b:1d:4f:c0:8f:d0:d0:c6:d8:14:6a:57:f2:36:ed:14:dd:e0:
         42:67:4c:ac:86:5a:31:86:f3:3f:9a:de:fb:d7:d6:af:fb:3f:
         09:de:4f:09:ae:e6:d6:e4:12:c4:99:88:d0:63:0c:a4:b3:14:
         db:c2:a0:5a:f7:00:7c:03:64:50:a5:a3:ac:19:e7:b7:82:6f:
         8b:5e:63:b3:7c:c2:f6:da:50:db:cb:28:83:ba:b4:cd:8c:c4:
         4c:21:61:71:0a:07:62:17:58:f2:cb:c2:c3:c6:bd:ec:bc:59:
         11:72:27:ca:5d:c2:5f:43:38:c5:a9:45:aa:73:ec:0f:d4:89:
         98:10:5e:6a:71:b5:b3:7e:df:ec:1e:d9:ea:87:23:b9:55:8c:
         e6:84:90:6c:ce:76:ee:d2:c6:d6:f6:29:fd:0c:a1:49:fe:2b:
         f8:b4:1e:d1:94:d4:42:16:03:53:d9:1b:f3:45:d1:04:90:29:
         c8:15:64:d5:32:06:62:f2:70:65:0e:ba:be:7f:ce:ad:44:63:
         c1:7c:7f:41:d4:85:af:48:e1:6d:7d:9f:b3:36:a3:42:bd:a2:
         b8:eb:23:03:e6:02:c9:eb
-----BEGIN CERTIFICATE-----
MIIE8DCCAtigAwIBAgIQfyu2+QykBH0cIYMSaHQdxjANBgkqhkiG9w0BAQsFADBj
MQswCQYDVQQGEwJVUzERMA8GA1UECAwITmV3IFlvcmsxDzANBgNVBAcMBkFybW9u
azEaMBgGA1UECgwRSUJNIENsb3VkIFByaXZhdGUxFDASBgNVBAMMC3d3dy5pYm0u
Y29tMCAXDTE5MDcxMTEwMTUzNFoYDzIxMTkwNjE3MTAxNTM0WjAZMRcwFQYDVQQD
DA5rdWJlbGV0LWNsaWVudDCCASIwDQYJKoZIhvcNAQEBBQADggEPADCCAQoCggEB
ALmwcdoSNvLnmh5ZLEHX91cxRzTmrGgNIrrNjHS9Utd9vKIQLBEf+QkV/TFTF0ZH
q7Ypt7NQsFXRnNQDywGSnws7dI9LKrugzqpYXKpIhEwCZQcqMr2IAxzzTpIboyQk
NdICYirwWEE8eoyfKKtTtMLSszlBXnWqqieJS3gquXTHSRQ8r098U74tthfHTVzf
15diWkcZ9sWcFySiqkeylXk/DCoQHtEPcZgvSGhQFjIf4rIgHqYnc4mlLetjiTaF
QXijt86MLT+xhxILu4RzV8YBzIMc6iOsKRxR4OL7nrh44fcKWbh27ZPt+BQbV66d
Q0m4sj+F/dvZYFqNaecD+xMCAwEAAaOB5zCB5DAJBgNVHRMEAjAAMB0GA1UdDgQW
BBQGhybwh/sS0mZuwLdpQYRsfsc40DCBlQYDVR0jBIGNMIGKgBRS543go9+7ZEcl
mjMpYMWF1oUxhaFnpGUwYzELMAkGA1UEBhMCVVMxETAPBgNVBAgMCE5ldyBZb3Jr
MQ8wDQYDVQQHDAZBcm1vbmsxGjAYBgNVBAoMEUlCTSBDbG91ZCBQcml2YXRlMRQw
EgYDVQQDDAt3d3cuaWJtLmNvbYIJAJgCQnhVmjO3MBMGA1UdJQQMMAoGCCsGAQUF
BwMCMAsGA1UdDwQEAwIHgDANBgkqhkiG9w0BAQsFAAOCAgEATXXEjt3pO4/bhzHE
8+/TyzpA3eRtynlpQlJofLnmOOn9C7lkN+IBG/pRspaflaniijYe9VIkcU1GRFXx
v9yDrBZfjAlU7Lglc5MdHOuwA8imPw2+aWWBJzsiuP9b3WgoPpKf0Tx7smFoE5rr
EWb4C4Vex6VU0h4k7ub/CyETG+Aq3BgqK8jiiRVIiIQ2KzQN79TWGRTHuxuMOa1y
ZtkcdqhuFqtXN3ailtJ9sZsp7ayJdeyut6FR7b6VDQDYLVzmRT5b+jrFKBhF1CPv
HVYy1jYZYs37VF7cFoDPLxQrk0/jt+dU5EvaaRVqvHS21Li/FejASw4IncvHpGMS
i/OizfHeBmYNeovOtv5eqH9NemKnSLSpy+9CSHGVqed4cOPdmx1PwI/Q0MbYFGpX
8jbtFN3gQmdMrIZaMYbzP5re+9fWr/s/Cd5PCa7m1uQSxJmI0GMMpLMU28KgWvcA
fANkUKWjrBnnt4Jvi15js3zC9tpQ28sog7q0zYzETCFhcQoHYhdY8svCw8a97LxZ
EXInyl3CX0M4xalFqnPsD9SJmBBeanG1s37f7B7Z6ocjuVWM5oSQbM527tLG1vYp
/QyhSf4r+LQe0ZTUQhYDU9kb80XRBJApyBVk1TIGYvJwZQ66vn/OrURjwXx/QdSF
r0jhbX2fszajQr2iuOsjA+YCyes=
-----END CERTIFICATE-----
